libimgui.dll

_ZNK26ImGuiSelectionBasicStorage8ContainsEj
_ZNK19ImGuiInputTextState17GetSelectionStartEv
_ZNK19ImGuiInputTextState15GetSelectionEndEv
_ZNK19ImGuiInputTextState12HasSelectionEv
_ZNK19ImGuiInputTextState12GetCursorPosEv
_ZNK15ImGuiTextFilter14ImGuiTextRange5splitEcP8ImVectorIS0_E
_ZNK15ImGuiTextFilter10PassFilterEPKcS1_
_ZNK12ImGuiStorage8GetFloatEjf
_ZNK12ImGuiStorage7GetBoolEjb
_ZNK12ImGuiStorage6GetIntEji
_ZNK12ImGuiStorage10GetVoidPtrEj
_ZNK11ImFontAtlas16CalcCustomRectUVEPK21ImFontAtlasCustomRectP6ImVec2S4_
_ZNK10ImDrawList27_CalcCircleAutoSegmentCountEf
_ZNK10ImDrawList11CloneOutputEv
_ZN7ImGuiIOC2Ev
_ZN7ImGuiIOC1Ev
_ZN7ImGuiIO22AddInputCharactersUTF8EPKc
_ZN7ImGuiIO22AddInputCharacterUTF16Et
_ZN7ImGuiIO21SetKeyEventNativeDataE8ImGuiKeyiii
_ZN7ImGuiIO21SetAppAcceptingEventsEb
_ZN7ImGuiIO21AddMouseViewportEventEj
_ZN7ImGuiIO20ClearInputCharactersEv
_ZN7ImGuiIO19AddMouseSourceEventE16ImGuiMouseSource
_ZN7ImGuiIO19AddMouseButtonEventEib
_ZN7ImGuiIO18AddMouseWheelEventEff
_ZN7ImGuiIO17AddKeyAnalogEventE8ImGuiKeybf
_ZN7ImGuiIO17AddInputCharacterEj
_ZN7ImGuiIO16ClearEventsQueueEv
_ZN7ImGuiIO16AddMousePosEventEff
_ZN7ImGuiIO15ClearInputMouseEv
_ZN7ImGuiIO14ClearInputKeysEv
_ZN7ImGuiIO13AddFocusEventEb
_ZN7ImGuiIO11AddKeyEventE8ImGuiKeyb
_ZN6ImFontD2Ev
_ZN6ImFontD1Ev
_ZN6ImFontC2Ev
_ZN6ImFontC1Ev
_ZN6ImFont9GrowIndexEi
_ZN6ImFont9FindGlyphEt
_ZN6ImFont8AddGlyphEPK12ImFontConfigtfffffffff
_ZN6ImFont21CalcWordWrapPositionAEfPKcS1_f
_ZN6ImFont19FindGlyphNoFallbackEt
_ZN6ImFont18IsGlyphRangeUnusedEjj
_ZN6ImFont16BuildLookupTableEv
_ZN6ImFont15SetGlyphVisibleEtb
_ZN6ImFont15ClearOutputDataEv
_ZN6ImFont13CalcTextSizeAEfffPKcS1_PS1_
_ZN6ImFont12AddRemapCharEttb
_ZN6ImFont10RenderTextEP10ImDrawListfRK6ImVec2jRK6ImVec4PKcS9_fb
_ZN6ImFont10RenderCharEP10ImDrawListfRK6ImVec2jt
_ZN5ImGui9TreeNodeVEPKvPKcPc
_ZN5ImGui9TreeNodeVEPKcS1_Pc
_ZN5ImGui9TabItemExEP11ImGuiTabBarPKcPbiP11ImGuiWindow
_ZN5ImGui9SliderIntEPKcPiiiS1_i
_ZN5ImGui9SeparatorEv
_ZN5ImGui9ScrollbarE9ImGuiAxis
_ZN5ImGui9PlotLinesEPKcPKfiiS1_ff6ImVec2i
_ZN5ImGui9PlotLinesEPKcPFfPviES2_iiS1_ff6ImVec2
_ZN5ImGui9OpenPopupEji
_ZN5ImGui9OpenPopupEPKci
_ZN5ImGui9LogToFileEiPKc
_ZN5ImGui9LogFinishEv
_ZN5ImGui9LabelTextEPKcS1_z
_ZN5ImGui9IsKeyDownE8ImGuiKeyj
_ZN5ImGui9IsKeyDownE8ImGuiKey
_ZN5ImGui9InputTextEPKcPcyiPFiP26ImGuiInputTextCallbackDataEPv
_ZN5ImGui9InputTextEPKcPNSt7__cxx1112basic_stringIcSt11char_traitsIcESaIcEEEiPFiP26ImGuiInputTextCallbackDataEPv
_ZN5ImGui9InputInt4EPKcPii
_ZN5ImGui9InputInt3EPKcPii
_ZN5ImGui9InputInt2EPKcPii
_ZN5ImGui9GetItemIDEv
_ZN5ImGui9FocusItemEv
_ZN5ImGui9EndTabBarEv
_ZN5ImGui9DragFloatEPKcPffffS1_i
_ZN5ImGui9DockSpaceEjRK6ImVec2iPK16ImGuiWindowClass
_ZN5ImGui9DebugLogVEPKcPc
_ZN5ImGui9BeginMenuEPKcb
_ZN5ImGui8UnindentEf
_ZN5ImGui8TreePushEPKv
_ZN5ImGui8TreePushEPKc
_ZN5ImGui8TreeNodeEPKvPKcz
_ZN5ImGui8TreeNodeEPKcS1_z
_ZN5ImGui8TreeNodeEPKc
_ZN5ImGui8TextLinkEPKc
_ZN5ImGui8ShutdownEv
_ZN5ImGui8ShortcutEiij
_ZN5ImGui8ShortcutEii
_ZN5ImGui8SetNavIDEj13ImGuiNavLayerjRK6ImRect
_ZN5ImGui8SameLineEff
_ZN5ImGui8PushFontEP6ImFont
_ZN5ImGui8NewFrameEv
_ZN5ImGui8MenuItemEPKcS1_bb
_ZN5ImGui8MenuItemEPKcS1_Pbb
_ZN5ImGui8MemAllocEy
_ZN5ImGui8LogToTTYEi
_ZN5ImGui8LogTextVEPKcPc
_ZN5ImGui8LogBeginEii
_ZN5ImGui8ItemSizeERK6ImVec2f
_ZN5ImGui8InputIntEPKcPiiii
_ZN5ImGui8GetStyleEv
_ZN5ImGui8ErrorLogEPKc
_ZN5ImGui8EndTableEv
_ZN5ImGui8EndPopupEv
_ZN5ImGui8EndGroupEv
_ZN5ImGui8EndFrameEv
_ZN5ImGui8EndComboEv
_ZN5ImGui8EndChildEv
_ZN5ImGui8DragInt4EPKcPifiiS1_i
_ZN5ImGui8DragInt3EPKcPifiiS1_i
_ZN5ImGui8DragInt2EPKcPifiiS1_i
_ZN5ImGui8DebugLogEPKcz
_ZN5ImGui8CheckboxEPKcPb
_ZN5ImGui8ButtonExEPKcRK6ImVec2i
_ZN5ImGui7TreePopEv
_ZN5ImGui7SpacingEv
_ZN5ImGui7PopFontEv
_ZN5ImGui7NewLineEv
_ZN5ImGui7MemFreeEPv
_ZN5ImGui7LogTextEPKcz
_ZN5ImGui7ListBoxEPKcPiPKS1_ii
_ZN5ImGui7ListBoxEPKcPiPFbPviPS1_ES3_ii
_ZN5ImGui7ListBoxEPKcPiPFS1_PviES3_ii
_ZN5ImGui7ItemAddERK6ImRectjPS1_i
_ZN5ImGui7GetTimeEv
_ZN5ImGui7GetIOExEP12ImGuiContext
_ZN5ImGui7GetFontEv
_ZN5ImGui7EndMenuEv
_ZN5ImGui7DragIntEPKcPifiiS1_i
_ZN5ImGui7ColumnsEiPKcb
_ZN5ImGui6TextExEPKcS1_i
_ZN5ImGui6RenderEv
_ZN5ImGui6PushIDEi
_ZN5ImGui6PushIDEPKv
_ZN5ImGui6PushIDEPKcS1_
_ZN5ImGui6PushIDEPKc
_ZN5ImGui6PlotExE13ImGuiPlotTypePKcPFfPviES3_iiS2_ffRK6ImVec2
_ZN5ImGui6IndentEf
_ZN5ImGui6ButtonEPKcRK6ImVec2
_ZN5ImGui6BulletEv
_ZN5ImGui5ValueEPKcj
_ZN5ImGui5ValueEPKci
_ZN5ImGui5ValueEPKcfS1_
_ZN5ImGui5ValueEPKcb
_ZN5ImGui5TextVEPKcPc
_ZN5ImGui5PopIDEv
_ZN5ImGui5ImageEyRK6ImVec2S2_S2_RK6ImVec4S5_
_ZN5ImGui5GetIOEv
_ZN5ImGui5GetIDEi
_ZN5ImGui5GetIDEPKv
_ZN5ImGui5GetIDEPKcS1_
_ZN5ImGui5GetIDEPKc
_ZN5ImGui5DummyERK6ImVec2
_ZN5ImGui5ComboEPKcPiS1_i
_ZN5ImGui5ComboEPKcPiPKS1_ii
_ZN5ImGui5ComboEPKcPiPFbPviPS1_ES3_ii
_ZN5ImGui5ComboEPKcPiPFS1_PviES3_ii
_ZN5ImGui5BeginEPKcPbi
_ZN5ImGui51ErrorCheckUsingSetCursorPosToExtendParentBoundariesEv
_ZN5ImGui4TextEPKcz
_ZN5ImGui48TabBarFindMostRecentlySelectedTabForActiveWindowEP11ImGuiTabBar
_ZN5ImGui43FindBottomMostVisibleWindowWithinBeginStackEP11ImGuiWindow
_ZN5ImGui42SetWindowHiddenAndSkipItemsForCurrentFrameEP11ImGuiWindow
_ZN5ImGui42FindHoveredViewportFromPlatformWindowStackERK6ImVec2
_ZN5ImGui3EndEv
_ZN5ImGui39NavUpdateCurrentWindowIsScrollPushableXEv
_ZN5ImGui38ShadeVertsLinearColorGradientKeepAlphaEP10ImDrawListii6ImVec2S2_jj
_ZN5ImGui38ErrorCheckEndFrameFinalizeErrorTooltipEv
_ZN5ImGui38DebugNodeWindowsListByBeginStackParentEPP11ImGuiWindowiS1_
_ZN5ImGui38DebugNodeDrawCmdShowMeshAndBoundingBoxEP10ImDrawListPKS0_PK9ImDrawCmdbb
_ZN5ImGui37NavMoveRequestResolveWithPastTreeNodeEP16ImGuiNavItemDataP22ImGuiTreeNodeStackData
_ZN5ImGui36RenderColorRectWithAlphaCheckerboardEP10ImDrawList6ImVec2S2_jfS2_fi
_ZN5ImGui36ErrorRecoveryTryToRecoverWindowStateEPK23ImGuiErrorRecoveryState
_ZN5ImGui35TypingSelectFindNextSingleCharMatchEP24ImGuiTypingSelectRequestiPFPKcPviES4_i
_ZN5ImGui34UpdateHoveredWindowAndCaptureFlagsEv
_ZN5ImGui34DockContextNewFrameUpdateUndockingEP12ImGuiContext
_ZN5ImGui34DockBuilderRemoveNodeDockedWindowsEjb
_ZN5ImGui34DebugTextUnformattedWithLocateItemEPKcS1_
_ZN5ImGui34DebugLocateItemResolveWithLastItemEv
_ZN5ImGui33TableUpdateColumnsWeightFromWidthEP10ImGuiTable
_ZN5ImGui33TableGetHeaderAngledMaxLabelWidthEv
_ZN5ImGui33SetWindowClipRectBeforeSetChannelEP11ImGuiWindowRK6ImRect
_ZN5ImGui33NavMoveRequestResolveWithLastItemEP16ImGuiNavItemData
_ZN5ImGui33DockNodeWindowMenuHandler_DefaultEP12ImGuiContextP13ImGuiDockNodeP11ImGuiTabBar
_ZN5ImGui32TypingSelectFindBestLeadingMatchEP24ImGuiTypingSelectRequestiPFPKcPviES4_
_ZN5ImGui32GetMousePosOnOpeningCurrentPopupEv
_ZN5ImGui32DockContextNewFrameUpdateDockingEP12ImGuiContext
_ZN5ImGui32DockContextCalcDropPosForDockingEP11ImGuiWindowP13ImGuiDockNodeS1_S3_8ImGuiDirbP6ImVec2
_ZN5ImGui31UpdateMouseMovingWindowNewFrameEv
_ZN5ImGui31UpdateMouseMovingWindowEndFrameEv
_ZN5ImGui31TableSettingsAddSettingsHandlerEv
_ZN5ImGui31TableGetColumnNextSortDirectionEP16ImGuiTableColumn
_ZN5ImGui31SetNextFrameWantCaptureKeyboardEb
_ZN5ImGui31SetActiveIdUsingAllKeyboardKeysEv
_ZN5ImGui31GcCompactTransientWindowBuffersEP11ImGuiWindow
_ZN5ImGui31DockBuilderRemoveNodeChildNodesEj
_ZN5ImGui30UpdateWindowParentAndRootLinksEP11ImGuiWindowiS1_
_ZN5ImGui30TableGcCompactTransientBuffersEP18ImGuiTableTempData
_ZN5ImGui30TableGcCompactTransientBuffersEP10ImGuiTable
_ZN5ImGui30TabBarQueueReorderFromMousePosEP11ImGuiTabBarP12ImGuiTabItem6ImVec2
_ZN5ImGui30IsDragDropPayloadBeingAcceptedEv
_ZN5ImGui30GetTopMostAndVisiblePopupModalEv
_ZN5ImGui30ErrorRecoveryTryToRecoverStateEPK23ImGuiErrorRecoveryState
_ZN5ImGui30DockContextProcessUndockWindowEP12ImGuiContextP11ImGuiWindowb
_ZN5ImGui30DebugCheckVersionAndDataLayoutEPKcyyyyyy
_ZN5ImGui30CalcRoundingFlagsForRectInRectERK6ImRectS2_f
_ZN5ImGui29TableSetColumnWidthAutoSingleEP10ImGuiTablei
_ZN5ImGui29GcCompactTransientMiscBuffersEv
_ZN5ImGui29GcAwakeTransientWindowBuffersEP11ImGuiWindow
_ZN5ImGui29DockBuilderCopyWindowSettingsEPKcS1_
_ZN5ImGui29BeginDisabledOverrideReenableEv
_ZN5ImGui28StartMouseMovingWindowOrNodeEP11ImGuiWindowP13ImGuiDockNodeb
_ZN5ImGui28SetNextWindowSizeConstraintsERK6ImVec2S2_PFvP21ImGuiSizeCallbackDataEPv
_ZN5ImGui28SetNextItemSelectionUserDataEx
_ZN5ImGui28SetNextFrameWantCaptureMouseEb
_ZN5ImGui28SetNavCursorVisibleAfterMoveEv
_ZN5ImGui28RenderPlatformWindowsDefaultEPvS0_
_ZN5ImGui28NavMoveRequestButNoResultYetEv
_ZN5ImGui28GetWindowAlwaysWantOwnTabBarEP11ImGuiWindow
_ZN5ImGui28GetTextLineHeightWithSpacingEv
_ZN5ImGui28FindViewportByPlatformHandleEPv
_ZN5ImGui28DockContextQueueUndockWindowEP12ImGuiContextP11ImGuiWindow
_ZN5ImGui28DockContextProcessUndockNodeEP12ImGuiContextP13ImGuiDockNode
_ZN5ImGui28DebugRenderViewportThumbnailEP10ImDrawListP14ImGuiViewportPRK6ImRect
_ZN5ImGui27TableSetColumnSortDirectionEi18ImGuiSortDirectionb
_ZN5ImGui27TableFixColumnSortDirectionEP10ImGuiTableP16ImGuiTableColumn
_ZN5ImGui27TableDrawDefaultContextMenuEP10ImGuiTablei
_ZN5ImGui27NavClearPreferredPosForAxisE9ImGuiAxis
_ZN5ImGui27FindBestWindowPosForPopupExERK6ImVec2S2_P8ImGuiDirRK6ImRectS7_24ImGuiPopupPositionPolicy
_ZN5ImGui27EndDisabledOverrideReenableEv
_ZN5ImGui27BeginDockableDragDropTargetEP11ImGuiWindow
_ZN5ImGui27BeginDockableDragDropSourceEP11ImGuiWindow
_ZN5ImGui26TranslateWindowsInViewportEP14ImGuiViewportPRK6ImVec2S4_S4_S4_
_ZN5ImGui26TableSetColumnWidthAutoAllEP10ImGuiTable
_ZN5ImGui26TablePushBackgroundChannelEv
_ZN5ImGui26TableBeginContextMenuPopupEP10ImGuiTable
_ZN5ImGui26TabItemLabelAndCloseButtonEP10ImDrawListRK6ImRecti6ImVec2PKcjjbPbS8_
_ZN5ImGui26SetNextWindowRefreshPolicyEi
_ZN5ImGui26IsWindowWithinBeginStackOfEP11ImGuiWindowS1_
_ZN5ImGui26IsItemDeactivatedAfterEditEv
_ZN5ImGui26GetViewportPlatformMonitorEP13ImGuiViewport
_ZN5ImGui26FocusTopMostWindowUnderOneEP11ImGuiWindowS1_P13ImGuiViewporti
_ZN5ImGui26FindWindowSettingsByWindowEP11ImGuiWindow
_ZN5ImGui26DockContextQueueUndockNodeEP12ImGuiContextP13ImGuiDockNode
_ZN5ImGui26DebugRenderKeyboardPreviewEP10ImDrawList
_ZN5ImGui26DebugNodeTypingSelectStateEP22ImGuiTypingSelectState
_ZN5ImGui26BringWindowToDisplayBehindEP11ImGuiWindowS1_
_ZN5ImGui25TablePopBackgroundChannelEv
_ZN5ImGui25NavMoveRequestTryWrappingEP11ImGuiWindowi
_ZN5ImGui25NavMoveRequestApplyResultEv
_ZN5ImGui25NavInitRequestApplyResultEv
_ZN5ImGui25LoadIniSettingsFromMemoryEPKcy
_ZN5ImGui25GetWindowContentRegionMinEv
_ZN5ImGui25GetWindowContentRegionMaxEv
_ZN5ImGui25GetTreeNodeToLabelSpacingEv
_ZN5ImGui25GetPopupAllowedExtentRectEP11ImGuiWindow
_ZN5ImGui25GetFrameHeightWithSpacingEv
_ZN5ImGui25FindBestWindowPosForPopupEP11ImGuiWindow
_ZN5ImGui25DebugNodeMultiSelectStateEP21ImGuiMultiSelectState
_ZN5ImGui25CalcWindowNextAutoFitSizeEP11ImGuiWindow
_ZN5ImGui25CalcTypematicRepeatAmountEffff
_ZN5ImGui25BringWindowToDisplayFrontEP11ImGuiWindow
_ZN5ImGui25BeginDragDropTargetCustomERK6ImRectj
_ZN5ImGui24SetNextWindowContentSizeERK6ImVec2
_ZN5ImGui24RenderRectFilledWithHoleEP10ImDrawListRK6ImRectS4_jf
_ZN5ImGui24RenderDragDropTargetRectERK6ImRectS2_
_ZN5ImGui24LogSetNextTextDecorationEPKcS1_
_ZN5ImGui24IsWindowContentHoverableEP11ImGuiWindowi
_ZN5ImGui24IsMouseDragPastThresholdEif
_ZN5ImGui24GetNavTweakPressedAmountE9ImGuiAxis
_ZN5ImGui24DockNodeBeginAmendTabBarEP13ImGuiDockNode
_ZN5ImGui24DockBuilderCopyDockSpaceEjjP8ImVectorIPKcE
_ZN5ImGui24DebugNodePlatformMonitorEP20ImGuiPlatformMonitorPKci
_ZN5ImGui24BringWindowToDisplayBackEP11ImGuiWindow
_ZN5ImGui23UpdateWindowSkipRefreshEP11ImGuiWindow
_ZN5ImGui23TableGetHeaderRowHeightEv
_ZN5ImGui23TableGetColumnWidthAutoEP10ImGuiTableP16ImGuiTableColumn
_ZN5ImGui23TableCalcMaxColumnWidthEPK10ImGuiTablei
_ZN5ImGui23TableBeginApplyRequestsEP10ImGuiTable
_ZN5ImGui23TableAngledHeadersRowExEjffPK20ImGuiTableHeaderDatai
_ZN5ImGui23SetNextItemAllowOverlapEv
_ZN5ImGui23SetKeyOwnersForKeyChordEiji
_ZN5ImGui23SaveIniSettingsToMemoryEPy
_ZN5ImGui23LocalizeRegisterEntriesEPK13ImGuiLocEntryi
_ZN5ImGui23LoadIniSettingsFromDiskEPKc
_ZN5ImGui23InputTextDeactivateHookEj
_ZN5ImGui23GetWindowResizeCornerIDEP11ImGuiWindowi
_ZN5ImGui23GetWindowResizeBorderIDEP11ImGuiWindow8ImGuiDir
_ZN5ImGui23GetColumnOffsetFromNormEPK15ImGuiOldColumnsf
_ZN5ImGui23GetColumnNormFromOffsetEPK15ImGuiOldColumnsf
_ZN5ImGui23ErrorRecoveryStoreStateEP23ImGuiErrorRecoveryState
_ZN5ImGui23DockContextRebuildNodesEP12ImGuiContext
_ZN5ImGui23DockContextFindNodeByIDEP12ImGuiContextj
_ZN5ImGui23DebugNodeWindowSettingsEP19ImGuiWindowSettings
_ZN5ImGui23DebugNodeInputTextStateEP19ImGuiInputTextState
_ZN5ImGui23DebugBreakButtonTooltipEbPKc
_ZN5ImGui23CreateNewWindowSettingsEPKc
_ZN5ImGui23ColorPickerOptionsPopupEPKfi
_ZN5ImGui23ColorConvertU32ToFloat4Ej
_ZN5ImGui23ColorConvertFloat4ToU32ERK6ImVec4
_ZN5ImGui23ClosePopupsExceptModalsEv
_ZN5ImGui23BringWindowToFocusFrontEP11ImGuiWindow
_ZN5ImGui23BeginPopupContextWindowEPKci
_ZN5ImGui23AlignTextToFramePaddingEv
_ZN5ImGui23AddDrawListToDrawDataExEP10ImDrawDataP8ImVectorIP10ImDrawListES4_
_ZN5ImGui22TreeNodeUpdateNextOpenEji
_ZN5ImGui22TableSortSpecsSanitizeEP10ImGuiTable
_ZN5ImGui22TableSetupScrollFreezeEii
_ZN5ImGui22TableSetupDrawChannelsEP10ImGuiTable
_ZN5ImGui22TableMergeDrawChannelsEP10ImGuiTable
_ZN5ImGui22TableGetColumnResizeIDEP10ImGuiTableii
_ZN5ImGui22TableGcCompactSettingsEv
_ZN5ImGui22StartMouseMovingWindowEP11ImGuiWindow
_ZN5ImGui22ShadeVertsTransformPosEP10ImDrawListiiRK6ImVec2ffS4_
_ZN5ImGui22SetNextWindowCollapsedEbi
_ZN5ImGui22ScaleWindowsInViewportEP14ImGuiViewportPf
_ZN5ImGui22RoundScalarWithFormatTIyEET_PKciS1_
_ZN5ImGui22RoundScalarWithFormatTIxEET_PKciS1_
_ZN5ImGui22RoundScalarWithFormatTIjEET_PKciS1_
_ZN5ImGui22RoundScalarWithFormatTIiEET_PKciS1_
_ZN5ImGui22RoundScalarWithFormatTIfEET_PKciS1_
_ZN5ImGui22RoundScalarWithFormatTIdEET_PKciS1_
_ZN5ImGui22RenderRectFilledRangeHEP10ImDrawListRK6ImRectjfff
_ZN5ImGui22MultiSelectAddSetRangeEP24ImGuiMultiSelectTempDatabixx
_ZN5ImGui22IsItemToggledSelectionEv
_ZN5ImGui22GetWindowScrollbarRectEP11ImGuiWindow9ImGuiAxis
_ZN5ImGui22GetTypingSelectRequestEi
_ZN5ImGui22GetTypematicRepeatRateEiPfS0_
_ZN5ImGui22GetShortcutRoutingDataEi
_ZN5ImGui22GetFontTexUvWhitePixelEv
_ZN5ImGui22FindWindowSettingsByIDEj
_ZN5ImGui22FindWindowDisplayIndexEP11ImGuiWindow
_ZN5ImGui22DockNodeEndAmendTabBarEv
_ZN5ImGui22DockBuilderSetNodeSizeEj6ImVec2
_ZN5ImGui22DestroyPlatformWindowsEv
_ZN5ImGui22DebugNodeTableSettingsEP18ImGuiTableSettings
_ZN5ImGui22DebugLocateItemOnHoverEj
_ZN5ImGui21UpdatePlatformWindowsEv
_ZN5ImGui21TypingSelectFindMatchEP24ImGuiTypingSelectRequestiPFPKcPviES4_i
_ZN5ImGui21TableSettingsFindByIDEj
_ZN5ImGui21TableSetColumnEnabledEib
_ZN5ImGui21TableGetHoveredColumnEv
_ZN5ImGui21TableGetBoundSettingsEP10ImGuiTable
_ZN5ImGui21TableAngledHeadersRowEv
_ZN5ImGui21ShowIDStackToolWindowEPb
_ZN5ImGui21SetNextWindowViewportEj
_ZN5ImGui21SetAllocatorFunctionsEPFPvyS0_EPFvS0_S0_ES0_
_ZN5ImGui21SaveIniSettingsToDiskEPKc
_ZN5ImGui21RenderArrowPointingAtEP10ImDrawList6ImVec2S2_8ImGuiDirj
_ZN5ImGui21RemoveSettingsHandlerEPKc
_ZN5ImGui21PushColumnsBackgroundEv
_ZN5ImGui21NavMoveRequestForwardE8ImGuiDirS0_ii
_ZN5ImGui21NavHighlightActivatedEj
_ZN5ImGui21MultiSelectItemHeaderEjPbPi
_ZN5ImGui21MultiSelectItemFooterEjPbS0_
_ZN5ImGui21GetForegroundDrawListEP13ImGuiViewport
_ZN5ImGui21GetDrawListSharedDataEv
_ZN5ImGui21GetContentRegionAvailEv
_ZN5ImGui21GetBackgroundDrawListEP13ImGuiViewport
_ZN5ImGui21GetAllocatorFunctionsEPPFPvyS0_EPPFvS0_S0_EPS0_
_ZN5ImGui21DockSpaceOverViewportEjPK13ImGuiViewportiPK16ImGuiWindowClass
_ZN5ImGui21DockContextInitializeEP12ImGuiContext
_ZN5ImGui21DockContextClearNodesEP12ImGuiContextjb
_ZN5ImGui21DockBuilderSetNodePosEj6ImVec2
_ZN5ImGui21DockBuilderRemoveNodeEj
_ZN5ImGui21DockBuilderDockWindowEPKcj
_ZN5ImGui21DestroyPlatformWindowEP14ImGuiViewportP
_ZN5ImGui21DataTypeApplyFromTextEPKciPvS1_S2_
_ZN5ImGui21ColorEditOptionsPopupEPKfi
_ZN5ImGui21ClosePopupsOverWindowEP11ImGuiWindowb
_ZN5ImGui21BeginPopupContextVoidEPKci
_ZN5ImGui21BeginPopupContextItemEPKci
_ZN5ImGui21AcceptDragDropPayloadEPKci
_ZN5ImGui20TableOpenContextMenuEi
_ZN5ImGui20TableBeginInitMemoryEP10ImGuiTablei
_ZN5ImGui20TabBarProcessReorderEP11ImGuiTabBar
_ZN5ImGui20TabBarFindTabByOrderEP11ImGuiTabBari
_ZN5ImGui20SetWindowHitTestHoleEP11ImGuiWindowRK6ImVec2S4_
_ZN5ImGui20SetNextWindowBgAlphaEf
_ZN5ImGui20SetNextItemStorageIDEj
_ZN5ImGui20SetKeyboardFocusHereEi
_ZN5ImGui20ScaleValueFromRatioTIxxdEET_ifS1_S1_bff
_ZN5ImGui20ScaleValueFromRatioTIiifEET_ifS1_S1_bff
_ZN5ImGui20ScaleValueFromRatioTIfffEET_ifS1_S1_bff
_ZN5ImGui20ScaleValueFromRatioTIdddEET_ifS1_S1_bff
_ZN5ImGui20PushMultiItemsWidthsEif
_ZN5ImGui20PopColumnsBackgroundEv
_ZN5ImGui20OpenPopupOnItemClickEPKci
_ZN5ImGui20NavMoveRequestSubmitE8ImGuiDirS0_ii
_ZN5ImGui20NavMoveRequestCancelEv
_ZN5ImGui20MultiSelectAddSetAllEP24ImGuiMultiSelectTempDatab
_ZN5ImGui20MarkIniSettingsDirtyEv
_ZN5ImGui20MarkIniSettingsDirtyEP11ImGuiWindow
_ZN5ImGui20IsWindowNavFocusableEP11ImGuiWindow
_ZN5ImGui20IsMouseDoubleClickedEij
_ZN5ImGui20IsMouseDoubleClickedEi
_ZN5ImGui20GetWindowScrollbarIDEP11ImGuiWindow9ImGuiAxis
_ZN5ImGui20GetTopMostPopupModalEv
_ZN5ImGui20GetMouseClickedCountEi
_ZN5ImGui20DockContextQueueDockEP12ImGuiContextP11ImGuiWindowP13ImGuiDockNodeS3_8ImGuiDirfb
_ZN5ImGui20DockContextGenNodeIDEP12ImGuiContext
_ZN5ImGui20DockBuilderSplitNodeEj8ImGuiDirfPjS1_
_ZN5ImGui20DebugStartItemPickerEv
_ZN5ImGui20DebugNodeWindowsListEP8ImVectorIP11ImGuiWindowEPKc
_ZN5ImGui20DebugFlashStyleColorEi
_ZN5ImGui20DebugDrawLineExtentsEj
_ZN5ImGui20DataTypeFormatStringEPciiPKvPKc
_ZN5ImGui20ColorConvertRGBtoHSVEfffRfS0_S0_
_ZN5ImGui20ColorConvertHSVtoRGBEfffRfS0_S0_
_ZN5ImGui20BeginViewportSideBarEPKcP13ImGuiViewport8ImGuiDirfi
_ZN5ImGui19TestShortcutRoutingEij
_ZN5ImGui19TableSortSpecsBuildEP10ImGuiTable
_ZN5ImGui19TableSettingsCreateEji
_ZN5ImGui19TableSetColumnWidthEif
_ZN5ImGui19TableSetColumnIndexEi
_ZN5ImGui19TableGetColumnIndexEv
_ZN5ImGui19TableGetColumnFlagsEi
_ZN5ImGui19TableGetColumnCountEv
_ZN5ImGui19TabBarGetCurrentTabEP11ImGuiTabBar
_ZN5ImGui19SetNextWindowScrollERK6ImVec2
_ZN5ImGui19SetNextWindowDockIDEji
_ZN5ImGui19SetNextItemShortcutEii
_ZN5ImGui19SetNavCursorVisibleEb
_ZN5ImGui19SetItemDefaultFocusEv
_ZN5ImGui19SetItemAllowOverlapEv
_ZN5ImGui19SetColorEditOptionsEi
_ZN5ImGui19ResetMouseDragDeltaEi
_ZN5ImGui19RenderTextClippedExEP10ImDrawListRK6ImVec2S4_PKcS6_PS3_S4_PK6ImRect
_ZN5ImGui19RenderArrowDockMenuEP10ImDrawList6ImVec2fj
_ZN5ImGui19IsMouseHoveringRectERK6ImVec2S2_b
_ZN5ImGui19GetKeyPressedAmountE8ImGuiKeyff
_ZN5ImGui19GetContentRegionMaxEv
_ZN5ImGui19FindSettingsHandlerEPKc
_ZN5ImGui19FindRenderedTextEndEPKcS1_
_ZN5ImGui19FindOrCreateColumnsEP11ImGuiWindowj
_ZN5ImGui19FindHoveredWindowExERK6ImVec2bPP11ImGuiWindowS5_
_ZN5ImGui19DockContextShutdownEP12ImGuiContext
_ZN5ImGui19DockContextEndFrameEP12ImGuiContext
_ZN5ImGui19DockBuilderCopyNodeEjjP8ImVectorIjE
_ZN5ImGui19DebugBreakClearDataEv
_ZN5ImGui19ClearWindowSettingsEPKc
_ZN5ImGui19CalcWrapWidthForPosERK6ImVec2f
_ZN5ImGui19BeginDragDropTargetEv
_ZN5ImGui19BeginDragDropSourceEi
_ZN5ImGui18TreePushOverrideIDEj
_ZN5ImGui18TableUpdateBordersEP10ImGuiTable
_ZN5ImGui18TableResetSettingsEP10ImGuiTable
_ZN5ImGui18TableGetHoveredRowEv
_ZN5ImGui18TableGetColumnNameEi
_ZN5ImGui18TableGetColumnNameEPK10ImGuiTablei
_ZN5ImGui18TableGetCellBgRectEPK10ImGuiTablei
_ZN5ImGui18TabBarQueueReorderEP11ImGuiTabBarP12ImGuiTabItemi
_ZN5ImGui18StyleColorsClassicEP10ImGuiStyle
_ZN5ImGui18ShowDebugLogWindowEPb
_ZN5ImGui18ShadeVertsLinearUVEP10ImDrawListiiRK6ImVec2S4_S4_S4_b
_ZN5ImGui18SetWindowFontScaleEf
_ZN5ImGui18SetWindowCollapsedEbi
_ZN5ImGui18SetWindowCollapsedEPKcbi
_ZN5ImGui18SetWindowCollapsedEP11ImGuiWindowbi
_ZN5ImGui18SetShortcutRoutingEiij
_ZN5ImGui18SetNextWindowFocusEv
_ZN5ImGui18SetNextWindowClassEPK16ImGuiWindowClass
_ZN5ImGui18SetDragDropPayloadEPKcPKvyi
_ZN5ImGui18SetCursorScreenPosERK6ImVec2
_ZN5ImGui18SetCurrentViewportEP11ImGuiWindowP14ImGuiViewportP
_ZN5ImGui18RenderTextEllipsisEP10ImDrawListRK6ImVec2S4_ffPKcS6_PS3_
_ZN5ImGui18PushColumnClipRectEi
_ZN5ImGui18InputTextMultilineEPKcPcyRK6ImVec2iPFiP26ImGuiInputTextCallbackDataEPv
_ZN5ImGui18InputTextMultilineEPKcPNSt7__cxx1112basic_stringIcSt11char_traitsIcESaIcEEERK6ImVec2iPFiP26ImGuiInputTextCallbackDataEPv
_ZN5ImGui18GetDragDropPayloadEv
_ZN5ImGui18GetCursorScreenPosEv
_ZN5ImGui18DockBuilderGetNodeEj
_ZN5ImGui18DockBuilderAddNodeEji
_ZN5ImGui18DebugNodeFontGlyphEP6ImFontPK11ImFontGlyph
_ZN5ImGui18DebugDrawCursorPosEj
_ZN5ImGui18BeginTooltipHiddenEv
_ZN5ImGui18AddSettingsHandlerEPK20ImGuiSettingsHandler
_ZN5ImGui17UpdateInputEventsEb
_ZN5ImGui17TableUpdateLayoutEP10ImGuiTable
_ZN5ImGui17TableSaveSettingsEP10ImGuiTable
_ZN5ImGui17TableLoadSettingsEP10ImGuiTable
_ZN5ImGui17TableGetSortSpecsEv
_ZN5ImGui17TabItemBackgroundEP10ImDrawListRK6ImRectij
_ZN5ImGui17TabBarFindTabByIDEP11ImGuiTabBarj
_ZN5ImGui17ShowStyleSelectorEPKc
_ZN5ImGui17ShowMetricsWindowEPb
_ZN5ImGui17SetWindowViewportEP11ImGuiWindowP14ImGuiViewportP
_ZN5ImGui17SetScrollFromPosYEff
_ZN5ImGui17SetScrollFromPosYEP11ImGuiWindowff
_ZN5ImGui17SetScrollFromPosXEff
_ZN5ImGui17SetScrollFromPosXEP11ImGuiWindowff
_ZN5ImGui17SetNextWindowSizeERK6ImVec2i
_ZN5ImGui17SetNextItemRefValEiPv
_ZN5ImGui17SetCurrentContextEP12ImGuiContext
_ZN5ImGui17RenderTextWrappedE6ImVec2PKcS2_f
_ZN5ImGui17RenderTextClippedERK6ImVec2S2_PKcS4_PS1_S2_PK6ImRect
_ZN5ImGui17RenderMouseCursorE6ImVec2fijjj
_ZN5ImGui17RenderFrameBorderE6ImVec2S0_f
_ZN5ImGui17RemoveContextHookEP12ImGuiContextj
_ZN5ImGui17IsWindowCollapsedEv
_ZN5ImGui17IsWindowAppearingEv
_ZN5ImGui17IsKeyChordPressedEiij
_ZN5ImGui17IsKeyChordPressedEi
_ZN5ImGui17IsItemToggledOpenEv
_ZN5ImGui17IsItemDeactivatedEv
_ZN5ImGui17InputTextWithHintEPKcS1_PcyiPFiP26ImGuiInputTextCallbackDataEPv
_ZN5ImGui17InputTextWithHintEPKcS1_PNSt7__cxx1112basic_stringIcSt11char_traitsIcESaIcEEEiPFiP26ImGuiInputTextCallbackDataEPv
_ZN5ImGui17GetWindowViewportEv
_ZN5ImGui17GetWindowDrawListEv
_ZN5ImGui17GetWindowDpiScaleEv
_ZN5ImGui17GetTextLineHeightEv
_ZN5ImGui17GetStyleColorVec4Ei
_ZN5ImGui17GetStyleColorNameEi
_ZN5ImGui17GetMouseDragDeltaEif
_ZN5ImGui17GetKeyMagnitude2dE8ImGuiKeyS0_S0_S0_
_ZN5ImGui17GetCursorStartPosEv
_ZN5ImGui17GetCurrentContextEv
_ZN5ImGui17FindBlockingModalEP11ImGuiWindow
_ZN5ImGui17EndDragDropTargetEv
_ZN5ImGui17EndDragDropSourceEv
_ZN5ImGui17DockBuilderFinishEj
_ZN5ImGui17DebugTextEncodingEPKc
_ZN5ImGui17DebugNodeViewportEP14ImGuiViewportP
_ZN5ImGui17DebugNodeDrawListEP11ImGuiWindowP14ImGuiViewportPPK10ImDrawListPKc
_ZN5ImGui17DebugNodeDockNodeEP13ImGuiDockNodePKc
_ZN5ImGui17DebugDrawItemRectEj
_ZN5ImGui17ClosePopupToLevelEib
_ZN5ImGui17CloseCurrentPopupEv
_ZN5ImGui17BeginErrorTooltipEv
_ZN5ImGui17BeginComboPreviewEv
_ZN5ImGui16TreeNodeBehaviorEjiPKcS1_
_ZN5ImGui16TeleportMousePosERK6ImVec2
_ZN5ImGui16TableSetupColumnEPKcifj
_ZN5ImGui16TableGetRowIndexEv
_ZN5ImGui16TableDrawBordersEP10ImGuiTable
_ZN5ImGui16TabBarQueueFocusEP11ImGuiTabBarPKc
_ZN5ImGui16TabBarQueueFocusEP11ImGuiTabBarP12ImGuiTabItem
_ZN5ImGui16TabBarGetTabNameEP11ImGuiTabBarP12ImGuiTabItem
_ZN5ImGui16StyleColorsLightEP10ImGuiStyle
_ZN5ImGui16SplitterBehaviorERK6ImRectj9ImGuiAxisPfS4_ffffj
_ZN5ImGui16ShowFontSelectorEPKc
_ZN5ImGui16SetTabItemClosedEPKc
_ZN5ImGui16SetNextWindowPosERK6ImVec2iS2_
_ZN5ImGui16SetNextItemWidthEf
_ZN5ImGui16SetNavFocusScopeEj
_ZN5ImGui16SetClipboardTextEPKc
_ZN5ImGui16IsDragDropActiveEv
_ZN5ImGui16IsAnyItemHoveredEv
_ZN5ImGui16IsAnyItemFocusedEv
_ZN5ImGui16GetClipboardTextEv
_ZN5ImGui16FindWindowByNameEPKc
_ZN5ImGui16FindViewportByIDEj
_ZN5ImGui16DebugNodeStorageEP12ImGuiStoragePKc
_ZN5ImGui16DebugNodeColumnsEP15ImGuiOldColumns
_ZN5ImGui16DebugBreakButtonEPKcS1_
_ZN5ImGui16CollapsingHeaderEPKci
_ZN5ImGui16CollapsingHeaderEPKcPbi
_ZN5ImGui16ClearIniSettingsEv
_ZN5ImGui16CallContextHooksEP12ImGuiContext20ImGuiContextHookType
_ZN5ImGui16BeginMultiSelectEiii
_ZN5ImGui16BeginMainMenuBarEv
_ZN5ImGui16BeginItemTooltipEv
_ZN5ImGui16ActivateItemByIDEj
_ZN5ImGui15TreeNodeSetOpenEjb
_ZN5ImGui15TreeNodeGetOpenEj
_ZN5ImGui15TextUnformattedEPKcS1_
_ZN5ImGui15TextLinkOpenURLEPKcS1_
_ZN5ImGui15TempInputScalarERK6ImRectjPKciPvS4_PKvS7_
_ZN5ImGui15TableSetBgColorEiji
_ZN5ImGui15TableNextColumnEv
_ZN5ImGui15TableHeadersRowEv
_ZN5ImGui15TabItemCalcSizeEPKcb
_ZN5ImGui15TabItemCalcSizeEP11ImGuiWindow
_ZN5ImGui15TabBarRemoveTabEP11ImGuiTabBarj
_ZN5ImGui15StyleColorsDarkEP10ImGuiStyle
_ZN5ImGui15SliderBehaviorTIjifEEbRK6ImRectjiPT_S4_S4_PKciPS1_
_ZN5ImGui15SliderBehaviorTIiifEEbRK6ImRectjiPT_S4_S4_PKciPS1_
_ZN5ImGui15SliderBehaviorTIfffEEbRK6ImRectjiPT_S4_S4_PKciPS1_
_ZN5ImGui15SliderBehaviorTIdddEEbRK6ImRectjiPT_S4_S4_PKciPS1_
_ZN5ImGui15ShowStyleEditorEP10ImGuiStyle
_ZN5ImGui15ShowAboutWindowEPb
_ZN5ImGui15SetStateStorageEP12ImGuiStorage
_ZN5ImGui15SetNextItemOpenEbi
_ZN5ImGui15SetLastItemDataEjiiRK6ImRect
_ZN5ImGui15SetItemTooltipVEPKcPc
_ZN5ImGui15SetItemKeyOwnerE8ImGuiKeyi
_ZN5ImGui15SetItemKeyOwnerE8ImGuiKey
_ZN5ImGui15SetColumnOffsetEif
_ZN5ImGui15SeparatorTextExEjPKcS1_f
_ZN5ImGui15RenderNavCursorERK6ImRectji
_ZN5ImGui15RenderCheckMarkEP10ImDrawList6ImVec2jf
_ZN5ImGui15PushTextWrapPosEf
_ZN5ImGui15LogRenderedTextEPK6ImVec2PKcS4_
_ZN5ImGui15IsWindowHoveredEi
_ZN5ImGui15IsWindowFocusedEi
_ZN5ImGui15IsWindowChildOfEP11ImGuiWindowS1_bb
_ZN5ImGui15IsMouseReleasedEij
_ZN5ImGui15IsMouseReleasedEi
_ZN5ImGui15IsMousePosValidEPK6ImVec2
_ZN5ImGui15IsMouseDraggingEif
_ZN5ImGui15IsItemActivatedEv
_ZN5ImGui15IsAnyItemActiveEv
_ZN5ImGui15InvisibleButtonEPKcRK6ImVec2i
_ZN5ImGui15GetWindowHeightEv
_ZN5ImGui15GetWindowDockIDEv
_ZN5ImGui15GetStyleVarInfoEi
_ZN5ImGui15GetStateStorageEv
_ZN5ImGui15GetPlatformIOExEP12ImGuiContext
_ZN5ImGui15GetMainViewportEv
_ZN5ImGui15GetKeyChordNameEi
_ZN5ImGui15GetItemRectSizeEv
_ZN5ImGui15GetColumnsCountEv
_ZN5ImGui15GetColumnOffsetEi
_ZN5ImGui15EndErrorTooltipEv
_ZN5ImGui15EndComboPreviewEv
_ZN5ImGui15DragFloatRange2EPKcPfS2_fffS1_S1_i
_ZN5ImGui15DebugNodeWindowEP11ImGuiWindowPKc
_ZN5ImGui15DebugNodeTabBarEP11ImGuiTabBarPKc
_ZN5ImGui15DebugLocateItemEj
_ZN5ImGui15DebugHookIdInfoEjiPKvS1_
_ZN5ImGui15DataTypeGetInfoEi
_ZN5ImGui15DataTypeCompareEiPKvS1_
_ZN5ImGui15DataTypeApplyOpEiiPvPKvS2_
_ZN5ImGui15BeginPopupModalEPKcPbi
_ZN5ImGui15BeginComboPopupEjRK6ImRecti
_ZN5ImGui14TableBeginCellEP10ImGuiTablei
_ZN5ImGui14TabBarCloseTabEP11ImGuiTabBarP12ImGuiTabItem
_ZN5ImGui14SliderBehaviorERK6ImRectjiPvPKvS5_PKciPS0_
_ZN5ImGui14ShowDemoWindowEPb
_ZN5ImGui14SetWindowFocusEv
_ZN5ImGui14SetWindowFocusEPKc
_ZN5ImGui14SetScrollHereYEf
_ZN5ImGui14SetScrollHereXEf
_ZN5ImGui14SetMouseCursorEi
_ZN5ImGui14SetItemTooltipEPKcz
_ZN5ImGui14SetCurrentFontEP6ImFont
_ZN5ImGui14SetColumnWidthEif
_ZN5ImGui14ScrollToRectExEP11ImGuiWindowRK6ImRecti
_ZN5ImGui14PushStyleColorEij
_ZN5ImGui14PushStyleColorEiRK6ImVec4
_ZN5ImGui14PushOverrideIDEj
_ZN5ImGui14PushFocusScopeEj
_ZN5ImGui14PopTextWrapPosEv
_ZN5ImGui14MarkItemEditedEj
_ZN5ImGui14LogToClipboardEi
_ZN5ImGui14IsWindowDockedEv
_ZN5ImGui14IsMouseClickedEiij
_ZN5ImGui14IsMouseClickedEib
_ZN5ImGui14IsAnyMouseDownEv
_ZN5ImGui14GetWindowWidthEv
_ZN5ImGui14GetMouseCursorEv
_ZN5ImGui14GetItemRectMinEv
_ZN5ImGui14GetItemRectMaxEv
_ZN5ImGui14GetFrameHeightEv
_ZN5ImGui14GetColumnWidthEi
_ZN5ImGui14GetColumnIndexEv
_ZN5ImGui14FindWindowByIDEj
_ZN5ImGui14EndMultiSelectEv
_ZN5ImGui14EndMainMenuBarEv
_ZN5ImGui14DestroyContextEP12ImGuiContext
_ZN5ImGui14DebugNodeTableEP10ImGuiTable
_ZN5ImGui14DebugAllocHookEP19ImGuiDebugAllocInfoiPvy
_ZN5ImGui14DataTypeIsZeroEiPKv
_ZN5ImGui14CollapseButtonEjRK6ImVec2P13ImGuiDockNode
_ZN5ImGui14ButtonBehaviorERK6ImRectjPbS3_i
_ZN5ImGui14BeginTooltipExEii
_ZN5ImGui14BeginBoxSelectERK6ImRectP11ImGuiWindowji
_ZN5ImGui14AddContextHookEP12ImGuiContextPK16ImGuiContextHook
_ZN5ImGui13VSliderScalarEPKcRK6ImVec2iPvPKvS7_S1_i
_ZN5ImGui13TextDisabledVEPKcPc
_ZN5ImGui13TempInputTextERK6ImRectjPKcPcii
_ZN5ImGui13TableFindByIDEj
_ZN5ImGui13TableBeginRowEP10ImGuiTable
_ZN5ImGui13TabItemButtonEPKci
_ZN5ImGui13SliderScalarNEPKciPviPKvS4_S1_i
_ZN5ImGui13ShowUserGuideEv
_ZN5ImGui13ShowFontAtlasEP11ImFontAtlas
_ZN5ImGui13SetWindowSizeERK6ImVec2i
_ZN5ImGui13SetWindowSizeEPKcRK6ImVec2i
_ZN5ImGui13SetWindowSizeEP11ImGuiWindowRK6ImVec2i
_ZN5ImGui13SetWindowDockEP11ImGuiWindowji
_ZN5ImGui13SetCursorPosYEf
_ZN5ImGui13SetCursorPosXEf
_ZN5ImGui13SeparatorTextEPKc
_ZN5ImGui13PushStyleVarYEif
_ZN5ImGui13PushStyleVarXEif
_ZN5ImGui13PushItemWidthEf
_ZN5ImGui13PopStyleColorEi
_ZN5ImGui13PopFocusScopeEv
_ZN5ImGui13PlotHistogramEPKcPKfiiS1_ff6ImVec2i
_ZN5ImGui13PlotHistogramEPKcPFfPviES2_iiS1_ff6ImVec2
_ZN5ImGui13NavInitWindowEP11ImGuiWindowb
_ZN5ImGui13ItemHoverableERK6ImRectji
_ZN5ImGui13IsWindowAboveEP11ImGuiWindowS1_
_ZN5ImGui13IsRectVisibleERK6ImVec2S2_
_ZN5ImGui13IsRectVisibleERK6ImVec2
_ZN5ImGui13IsKeyReleasedE8ImGuiKeyj
_ZN5ImGui13IsKeyReleasedE8ImGuiKey
_ZN5ImGui13IsItemVisibleEv
_ZN5ImGui13IsItemHoveredEi
_ZN5ImGui13IsItemFocusedEv
_ZN5ImGui13IsItemClickedEi
_ZN5ImGui13ImageButtonExEjyRK6ImVec2S2_S2_RK6ImVec4S5_i
_ZN5ImGui13GetWindowSizeEv
_ZN5ImGui13GetScrollMaxYEv
_ZN5ImGui13GetScrollMaxXEv
_ZN5ImGui13GetPlatformIOEv
_ZN5ImGui13GetIDWithSeedEij
_ZN5ImGui13GetIDWithSeedEPKcS1_j
_ZN5ImGui13GetFrameCountEv
_ZN5ImGui13GetCursorPosYEv
_ZN5ImGui13GetCursorPosXEv
_ZN5ImGui13DragIntRange2EPKcPiS2_fiiS1_S1_i
_ZN5ImGui13DragBehaviorTIyxdEEbiPT_fS1_S1_PKci
_ZN5ImGui13DragBehaviorTIxxdEEbiPT_fS1_S1_PKci
_ZN5ImGui13DragBehaviorTIjifEEbiPT_fS1_S1_PKci
_ZN5ImGui13DragBehaviorTIiifEEbiPT_fS1_S1_PKci
_ZN5ImGui13DragBehaviorTIfffEEbiPT_fS1_S1_PKci
_ZN5ImGui13DragBehaviorTIdddEEbiPT_fS1_S1_PKci
_ZN5ImGui13DebugNodeFontEP6ImFont
_ZN5ImGui13DataTypeClampEiPvPKvS2_
_ZN5ImGui13CreateContextEP11ImFontAtlas
_ZN5ImGui13ClearDragDropEv
_ZN5ImGui13ClearActiveIDEv
_ZN5ImGui13CheckboxFlagsEPKcPyy
_ZN5ImGui13CheckboxFlagsEPKcPxx
_ZN5ImGui13CheckboxFlagsEPKcPjj
_ZN5ImGui13CheckboxFlagsEPKcPii
_ZN5ImGui13CalcItemWidthEv
_ZN5ImGui13BeginTabBarExEP11ImGuiTabBarRK6ImRecti
_ZN5ImGui13BeginDisabledEb
_ZN5ImGui13ArrowButtonExEPKc8ImGuiDir6ImVec2i
_ZN5ImGui12VSliderFloatEPKcRK6ImVec2PfffS1_i
_ZN5ImGui12TextWrappedVEPKcPc
_ZN5ImGui12TextDisabledEPKcz
_ZN5ImGui12TextColoredVERK6ImVec4PKcPc
_ZN5ImGui12TestKeyOwnerE8ImGuiKeyj
_ZN5ImGui12TableNextRowEif
_ZN5ImGui12TableEndCellEP10ImGuiTable
_ZN5ImGui12TabBarAddTabEP11ImGuiTabBariP11ImGuiWindow
_ZN5ImGui12SliderScalarEPKciPvPKvS4_S1_i
_ZN5ImGui12SliderFloat4EPKcPfffS1_i
_ZN5ImGui12SliderFloat3EPKcPfffS1_i
_ZN5ImGui12SliderFloat2EPKcPfffS1_i
_ZN5ImGui12ShrinkWidthsEP20ImGuiShrinkWidthItemif
_ZN5ImGui12SetWindowPosERK6ImVec2i
_ZN5ImGui12SetWindowPosEPKcRK6ImVec2i
_ZN5ImGui12SetWindowPosEP11ImGuiWindowRK6ImVec2i
_ZN5ImGui12SetNavWindowEP11ImGuiWindow
_ZN5ImGui12SetHoveredIDEj
_ZN5ImGui12SetCursorPosERK6ImVec2
_ZN5ImGui12ScrollToRectEP11ImGuiWindowRK6ImRecti
_ZN5ImGui12ScrollToItemEi
_ZN5ImGui12RenderBulletEP10ImDrawList6ImVec2j
_ZN5ImGui12PushStyleVarEif
_ZN5ImGui12PushStyleVarEiRK6ImVec2
_ZN5ImGui12PushItemFlagEib
_ZN5ImGui12PushClipRectERK6ImVec2S2_b
_ZN5ImGui12PopItemWidthEv
_ZN5ImGui12IsKeyPressedE8ImGuiKeyij
_ZN5ImGui12IsKeyPressedE8ImGuiKeyb
_ZN5ImGui12IsItemEditedEv
_ZN5ImGui12IsItemActiveEv
_ZN5ImGui12InputScalarNEPKciPviPKvS4_S1_i
_ZN5ImGui12GetWindowPosEv
_ZN5ImGui12GetHoveredIDEv
_ZN5ImGui12GetCursorPosEv
_ZN5ImGui12GetColumnsIDEPKci
_ZN5ImGui12EndBoxSelectERK6ImRecti
_ZN5ImGui12DragBehaviorEjiPvfPKvS2_PKci
_ZN5ImGui12ColorTooltipEPKcPKfi
_ZN5ImGui12ColorPicker4EPKcPfiPKf
_ZN5ImGui12ColorPicker3EPKcPfi
_ZN5ImGui12CalcTextSizeEPKcS1_bf
_ZN5ImGui12CalcItemSizeE6ImVec2ff
_ZN5ImGui12BeginTooltipEv
_ZN5ImGui12BeginTableExEPKcjiiRK6ImVec2f
_ZN5ImGui12BeginTabItemEPKcPbi
_ZN5ImGui12BeginPopupExEji
_ZN5ImGui12BeginMenuBarEv
_ZN5ImGui12BeginListBoxEPKcRK6ImVec2
_ZN5ImGui12BeginColumnsEPKcii
_ZN5ImGui12BeginChildExEPKcjRK6ImVec2ii
_ZN5ImGui11TreeNodeExVEPKviPKcPc
_ZN5ImGui11TreeNodeExVEPKciS1_Pc
_ZN5ImGui11TextWrappedEPKcz
_ZN5ImGui11TextColoredERK6ImVec4PKcz
_ZN5ImGui11TableRemoveEP10ImGuiTable
_ZN5ImGui11TableHeaderEPKc
_ZN5ImGui11TableEndRowEP10ImGuiTable
_ZN5ImGui11SmallButtonEPKc
_ZN5ImGui11SliderFloatEPKcPfffS1_i
_ZN5ImGui11SliderAngleEPKcPfffS1_i
_ZN5ImGui11SetTooltipVEPKcPc
_ZN5ImGui11SetKeyOwnerE8ImGuiKeyji
_ZN5ImGui11SetActiveIDEjP11ImGuiWindow
_ZN5ImGui11SeparatorExEif
_ZN5ImGui11ScrollbarExERK6ImRectj9ImGuiAxisPxxxi
_ZN5ImGui11RenderFrameE6ImVec2S0_jbf
_ZN5ImGui11RenderArrowEP10ImDrawList6ImVec2j8ImGuiDirf
_ZN5ImGui11RadioButtonEPKcb
_ZN5ImGui11RadioButtonEPKcPii
_ZN5ImGui11ProgressBarEfRK6ImVec2PKc
_ZN5ImGui11PopStyleVarEi
_ZN5ImGui11PopItemFlagEv
_ZN5ImGui11PopClipRectEv
_ZN5ImGui11OpenPopupExEji
_ZN5ImGui11LogToBufferEi
_ZN5ImGui11KeepAliveIDEj
_ZN5ImGui11IsPopupOpenEji
_ZN5ImGui11IsPopupOpenEPKci
_ZN5ImGui11IsMouseDownEij
_ZN5ImGui11IsMouseDownEi
_ZN5ImGui11IsClippedExERK6ImRectj
_ZN5ImGui11InputTextExEPKcS1_PciRK6ImVec2iPFiP26ImGuiInputTextCallbackDataEPv
_ZN5ImGui11InputScalarEPKciPvPKvS4_S1_i
_ZN5ImGui11InputFloat4EPKcPfS1_i
_ZN5ImGui11InputFloat3EPKcPfS1_i
_ZN5ImGui11InputFloat2EPKcPfS1_i
_ZN5ImGui11InputDoubleEPKcPdddS1_i
_ZN5ImGui11ImageButtonEPKcyRK6ImVec2S4_S4_RK6ImVec4S7_
_ZN5ImGui11GetMousePosEv
_ZN5ImGui11GetKeyOwnerE8ImGuiKey
_ZN5ImGui11GetFontSizeEv
_ZN5ImGui11GetDrawDataEv
_ZN5ImGui11GetColorU32Ejf
_ZN5ImGui11GetColorU32Eif
_ZN5ImGui11GetColorU32ERK6ImVec4
_ZN5ImGui11FocusWindowEP11ImGuiWindowi
_ZN5ImGui11EndDisabledEv
_ZN5ImGui11DragScalarNEPKciPvifPKvS4_S1_i
_ZN5ImGui11ColorButtonEPKcRK6ImVec4iRK6ImVec2
_ZN5ImGui11CloseButtonEjRK6ImVec2
_ZN5ImGui11BulletTextVEPKcPc
_ZN5ImGui11BeginTabBarEPKci
_ZN5ImGui11BeginMenuExEPKcS1_b
_ZN5ImGui11BeginDockedEP11ImGuiWindowPb
_ZN5ImGui11ArrowButtonEPKc8ImGuiDir
_ZN5ImGui10VSliderIntEPKcRK6ImVec2PiiiS1_i
_ZN5ImGui10TreeNodeExEPKviPKcz
_ZN5ImGui10TreeNodeExEPKciS1_z
_ZN5ImGui10TreeNodeExEPKci
_ZN5ImGui10SliderInt4EPKcPiiiS1_i
_ZN5ImGui10SliderInt3EPKcPiiiS1_i
_ZN5ImGui10SliderInt2EPKcPiiiS1_i
_ZN5ImGui10SetTooltipEPKcz
_ZN5ImGui10SetScrollYEf
_ZN5ImGui10SetScrollYEP11ImGuiWindowf
_ZN5ImGui10SetScrollXEf
_ZN5ImGui10SetScrollXEP11ImGuiWindowf
_ZN5ImGui10SetFocusIDEjP11ImGuiWindow
_ZN5ImGui10SelectableEPKcbiRK6ImVec2
_ZN5ImGui10SelectableEPKcPbiRK6ImVec2
_ZN5ImGui10RenderTextE6ImVec2PKcS2_b
_ZN5ImGui10NextColumnEv
_ZN5ImGui10MenuItemExEPKcS1_S1_bb
_ZN5ImGui10LogButtonsEv
_ZN5ImGui10LabelTextVEPKcS1_Pc
_ZN5ImGui10InputFloatEPKcPfffS1_i
_ZN5ImGui10InitializeEv
_ZN5ImGui10GetVersionEv
_ZN5ImGui10GetScrollYEv
_ZN5ImGui10GetScrollXEv
_ZN5ImGui10GetKeyNameE8ImGuiKey
_ZN5ImGui10GetKeyDataEP12ImGuiContext8ImGuiKey
_ZN5ImGui10EndTooltipEv
_ZN5ImGui10EndTabItemEv
_ZN5ImGui10EndMenuBarEv
_ZN5ImGui10EndListBoxEv
_ZN5ImGui10EndColumnsEv
_ZN5ImGui10DragScalarEPKciPvfPKvS4_S1_i
_ZN5ImGui10DragFloat4EPKcPffffS1_i
_ZN5ImGui10DragFloat3EPKcPffffS1_i
_ZN5ImGui10DragFloat2EPKcPffffS1_i
_ZN5ImGui10ColorEdit4EPKcPfi
_ZN5ImGui10ColorEdit3EPKcPfi
_ZN5ImGui10BulletTextEPKcz
_ZN5ImGui10BeginTableEPKciiRK6ImVec2f
_ZN5ImGui10BeginPopupEPKci
_ZN5ImGui10BeginGroupEv
_ZN5ImGui10BeginComboEPKcS1_i
_ZN5ImGui10BeginChildEjRK6ImVec2ii
_ZN5ImGui10BeginChildEPKcRK6ImVec2ii
_ZN29ImGuiSelectionExternalStorageC2Ev
_ZN29ImGuiSelectionExternalStorageC1Ev
_ZN29ImGuiSelectionExternalStorage13ApplyRequestsEP18ImGuiMultiSelectIO
_ZN26ImGuiSelectionBasicStorageC2Ev
_ZN26ImGuiSelectionBasicStorageC1Ev
_ZN26ImGuiSelectionBasicStorage5ClearEv
_ZN26ImGuiSelectionBasicStorage4SwapERS_
_ZN26ImGuiSelectionBasicStorage19GetNextSelectedItemEPPvPj
_ZN26ImGuiSelectionBasicStorage15SetItemSelectedEjb
_ZN26ImGuiSelectionBasicStorage13ApplyRequestsEP18ImGuiMultiSelectIO
_ZN26ImGuiInputTextCallbackDataC2Ev
_ZN26ImGuiInputTextCallbackDataC1Ev
_ZN26ImGuiInputTextCallbackData11InsertCharsEiPKcS1_
_ZN26ImGuiInputTextCallbackData11DeleteCharsEii
_ZN24ImFontGlyphRangesBuilder9AddRangesEPKt
_ZN24ImFontGlyphRangesBuilder7AddTextEPKcS1_
_ZN24ImFontGlyphRangesBuilder11BuildRangesEP8ImVectorItE
_ZN20ImDrawListSharedDataC2Ev
_ZN20ImDrawListSharedDataC1Ev
_ZN20ImDrawListSharedData29SetCircleTessellationMaxErrorEf
_ZN19ImGuiInputTextStateD2Ev
_ZN19ImGuiInputTextStateD1Ev
_ZN19ImGuiInputTextStateC2Ev
_ZN19ImGuiInputTextStateC1Ev
_ZN19ImGuiInputTextState9SelectAllEv
_ZN19ImGuiInputTextState29ReloadUserBufAndKeepSelectionEv
_ZN19ImGuiInputTextState25ReloadUserBufAndSelectAllEv
_ZN19ImGuiInputTextState25ReloadUserBufAndMoveToEndEv
_ZN19ImGuiInputTextState15CursorAnimResetEv
_ZN19ImGuiInputTextState14ClearSelectionEv
_ZN19ImGuiInputTextState13OnCharPressedEj
_ZN19ImGuiInputTextState12OnKeyPressedEi
_ZN19ImGuiInputTextState11CursorClampEv
_ZN18ImDrawListSplitter5SplitEP10ImDrawListi
_ZN18ImDrawListSplitter5MergeEP10ImDrawList
_ZN18ImDrawListSplitter17SetCurrentChannelEP10ImDrawListi
_ZN18ImDrawListSplitter15ClearFreeMemoryEv
_ZN16ImGuiMenuColumns6UpdateEfb
_ZN16ImGuiMenuColumns18CalcNextTotalWidthEb
_ZN16ImGuiMenuColumns11DeclColumnsEffff
_ZN16ImGuiListClipperD2Ev
_ZN16ImGuiListClipperD1Ev
_ZN16ImGuiListClipperC2Ev
_ZN16ImGuiListClipperC1Ev
_ZN16ImGuiListClipper5BeginEif
_ZN16ImGuiListClipper4StepEv
_ZN16ImGuiListClipper3EndEv
_ZN16ImGuiListClipper19IncludeItemsByIndexEii
_ZN16ImGuiListClipper17SeekCursorForItemEi
_ZN15ImGuiTextFilterC2EPKc
_ZN15ImGuiTextFilterC1EPKc
_ZN15ImGuiTextFilter5BuildEv
_ZN15ImGuiTextFilter4DrawEPKcf
_ZN15ImGuiTextBuffer8appendfvEPKcPc
_ZN15ImGuiTextBuffer7appendfEPKcz
_ZN15ImGuiTextBuffer6appendEPKcS1_
_ZN15ImGuiPlatformIOC2Ev
_ZN15ImGuiPlatformIOC1Ev
_ZN13ImGuiDockNodeD2Ev
_ZN13ImGuiDockNodeD1Ev
_ZN13ImGuiDockNodeC2Ej
_ZN13ImGuiDockNodeC1Ej
_ZN12ImGuiStorage9SetAllIntEi
_ZN12ImGuiStorage9GetIntRefEji
_ZN12ImGuiStorage8SetFloatEjf
_ZN12ImGuiStorage7SetBoolEjb
_ZN12ImGuiStorage6SetIntEji
_ZN12ImGuiStorage14BuildSortByKeyEv
_ZN12ImGuiStorage13GetVoidPtrRefEjPv
_ZN12ImGuiStorage11GetFloatRefEjf
_ZN12ImGuiStorage10SetVoidPtrEjPv
_ZN12ImGuiStorage10GetBoolRefEjb
_ZN12ImFontConfigC2Ev
_ZN12ImFontConfigC1Ev
_ZN11ImGuiWindowD2Ev
_ZN11ImGuiWindowD1Ev
_ZN11ImGuiWindowC2EP12ImGuiContextPKc
_ZN11ImGuiWindowC1EP12ImGuiContextPKc
_ZN11ImGuiWindow5GetIDEi
_ZN11ImGuiWindow5GetIDEPKv
_ZN11ImGuiWindow5GetIDEPKcS1_
_ZN11ImGuiWindow18GetIDFromRectangleERK6ImRect
_ZN11ImGuiWindow12GetIDFromPosERK6ImVec2
_ZN11ImGuiTabBarC2Ev
_ZN11ImGuiTabBarC1Ev
_ZN11ImFontAtlasD2Ev
_ZN11ImFontAtlasD1Ev
_ZN11ImFontAtlasC2Ev
_ZN11ImFontAtlasC1Ev
_ZN11ImFontAtlas7AddFontEPK12ImFontConfig
_ZN11ImFontAtlas5ClearEv
_ZN11ImFontAtlas5BuildEv
_ZN11ImFontAtlas37GetGlyphRangesChineseSimplifiedCommonEv
_ZN11ImFontAtlas36AddFontFromMemoryCompressedBase85TTFEPKcfPK12ImFontConfigPKt
_ZN11ImFontAtlas30AddFontFromMemoryCompressedTTFEPKvifPK12ImFontConfigPKt
_ZN11ImFontAtlas25GetGlyphRangesChineseFullEv
_ZN11ImFontAtlas24GetGlyphRangesVietnameseEv
_ZN11ImFontAtlas22GetGlyphRangesJapaneseEv
_ZN11ImFontAtlas22GetGlyphRangesCyrillicEv
_ZN11ImFontAtlas22AddCustomRectFontGlyphEP6ImFonttiifRK6ImVec2
_ZN11ImFontAtlas21GetMouseCursorTexDataEiP6ImVec2S1_S1_S1_
_ZN11ImFontAtlas21GetGlyphRangesDefaultEv
_ZN11ImFontAtlas20GetGlyphRangesKoreanEv
_ZN11ImFontAtlas20AddFontFromMemoryTTFEPvifPK12ImFontConfigPKt
_ZN11ImFontAtlas20AddCustomRectRegularEii
_ZN11ImFontAtlas19GetGlyphRangesGreekEv
_ZN11ImFontAtlas18GetTexDataAsRGBA32EPPhPiS2_S2_
_ZN11ImFontAtlas18GetTexDataAsAlpha8EPPhPiS2_S2_
_ZN11ImFontAtlas18GetGlyphRangesThaiEv
_ZN11ImFontAtlas18AddFontFromFileTTFEPKcfPK12ImFontConfigPKt
_ZN11ImFontAtlas14ClearInputDataEv
_ZN11ImFontAtlas14AddFontDefaultEPK12ImFontConfig
_ZN11ImFontAtlas12ClearTexDataEv
_ZN11ImFontAtlas10ClearFontsEv
_ZN10ImGuiStyleC2Ev
_ZN10ImGuiStyleC1Ev
_ZN10ImGuiStyle13ScaleAllSizesEf
_ZN10ImDrawListD2Ev
_ZN10ImDrawListD1Ev
_ZN10ImDrawListC2EP20ImDrawListSharedData
_ZN10ImDrawListC1EP20ImDrawListSharedData
_ZN10ImDrawList9PathArcToERK6ImVec2fffi
_ZN10ImDrawList9AddCircleERK6ImVec2fjif
_ZN10ImDrawList8PrimRectERK6ImVec2S2_j
_ZN10ImDrawList8PathRectERK6ImVec2S2_fi
_ZN10ImDrawList8AddImageEyRK6ImVec2S2_S2_S2_j
_ZN10ImDrawList7AddTextERK6ImVec2jPKcS4_
_ZN10ImDrawList7AddTextEP6ImFontfRK6ImVec2jPKcS6_fPK6ImVec4
_ZN10ImDrawList7AddRectERK6ImVec2S2_jfif
_ZN10ImDrawList7AddQuadERK6ImVec2S2_S2_S2_jf
_ZN10ImDrawList7AddNgonERK6ImVec2fjif
_ZN10ImDrawList7AddLineERK6ImVec2S2_jf
_ZN10ImDrawList26PathBezierQuadraticCurveToERK6ImVec2S2_i
_ZN10ImDrawList23AddRectFilledMultiColorERK6ImVec2S2_jjjj
_ZN10ImDrawList22PushClipRectFullScreenEv
_ZN10ImDrawList22PathBezierCubicCurveToERK6ImVec2S2_S2_i
_ZN10ImDrawList20AddConcavePolyFilledEPK6ImVec2ij
_ZN10ImDrawList19_OnChangedVtxOffsetEv
_ZN10ImDrawList19_OnChangedTextureIDEv
_ZN10ImDrawList19PathEllipticalArcToERK6ImVec2S2_fffi
_ZN10ImDrawList19AddConvexPolyFilledEPK6ImVec2ij
_ZN10ImDrawList18_OnChangedClipRectEv
_ZN10ImDrawList18AddBezierQuadraticERK6ImVec2S2_S2_jfi
_ZN10ImDrawList17_TryMergeDrawCmdsEv
_ZN10ImDrawList17_ResetForNewFrameEv
_ZN10ImDrawList17_PopUnusedDrawCmdEv
_ZN10ImDrawList17AddTriangleFilledERK6ImVec2S2_S2_j
_ZN10ImDrawList16_PathArcToFastExERK6ImVec2fiii
_ZN10ImDrawList16_ClearFreeMemoryEv
_ZN10ImDrawList16AddEllipseFilledERK6ImVec2S2_jfi
_ZN10ImDrawList15AddImageRoundedEyRK6ImVec2S2_S2_S2_jfi
_ZN10ImDrawList15AddCircleFilledERK6ImVec2fji
_ZN10ImDrawList14AddBezierCubicERK6ImVec2S2_S2_S2_jfi
_ZN10ImDrawList13_SetTextureIDEy
_ZN10ImDrawList13PushTextureIDEy
_ZN10ImDrawList13PrimUnreserveEii
_ZN10ImDrawList13PathArcToFastERK6ImVec2fii
_ZN10ImDrawList13AddRectFilledERK6ImVec2S2_jfi
_ZN10ImDrawList13AddQuadFilledERK6ImVec2S2_S2_S2_j
_ZN10ImDrawList13AddNgonFilledERK6ImVec2fji
_ZN10ImDrawList12PushClipRectERK6ImVec2S2_b
_ZN10ImDrawList12PopTextureIDEv
_ZN10ImDrawList12AddImageQuadEyRK6ImVec2S2_S2_S2_S2_S2_S2_S2_j
_ZN10ImDrawList11_PathArcToNERK6ImVec2fffi
_ZN10ImDrawList11PrimReserveEii
_ZN10ImDrawList11PopClipRectEv
_ZN10ImDrawList11AddTriangleERK6ImVec2S2_S2_jf
_ZN10ImDrawList11AddPolylineEPK6ImVec2ijif
_ZN10ImDrawList11AddCallbackEPFvPKS_PK9ImDrawCmdEPvy
_ZN10ImDrawList10PrimRectUVERK6ImVec2S2_S2_S2_j
_ZN10ImDrawList10PrimQuadUVERK6ImVec2S2_S2_S2_S2_S2_S2_S2_j
_ZN10ImDrawList10AddEllipseERK6ImVec2S2_jfif
_ZN10ImDrawList10AddDrawCmdEv
_ZN10ImDrawData5ClearEv
_ZN10ImDrawData17DeIndexAllBuffersEv
_ZN10ImDrawData14ScaleClipRectsERK6ImVec2
_ZN10ImDrawData11AddDrawListEP10ImDrawList
_Z9ImStrncpyPcPKcy
_Z9ImStrlenWPKt
_Z9ImStristrPKcS0_S0_S0_
_Z9ImStricmpPKcS0_
_Z9ImHashStrPKcyj
_Z8ImStrdupPKc
_Z8ImStrbolPKcS0_
_Z45ImGui_ImplGlfw_SetCallbacksChainForAllWindowsb
_Z41ImFontAtlasBuildRender32bppRectFromStringP11ImFontAtlasiiiiPKccj
_Z40ImFontAtlasBuildRender8bppRectFromStringP11ImFontAtlasiiiiPKcch
_Z39ImFontAtlasBuildMultiplyCalcLookupTablePhf
_Z38ImGui_ImplWin32_EnableAlphaCompositingPv
_Z38ImGui_ImplOpenGL3_DestroyDeviceObjectsv
_Z38ImGui_ImplDX11_InvalidateDeviceObjectsv
_Z38ImGui_ImplDX10_InvalidateDeviceObjectsv
_Z37ImGui_ImplWin32_GetDpiScaleForMonitorPv
_Z37ImGui_ImplOpenGL3_DestroyFontsTexturev
_Z37ImGui_ImplOpenGL3_CreateDeviceObjectsv
_Z37ImGui_ImplDX9_InvalidateDeviceObjectsv
_Z36ImGui_ImplOpenGL3_CreateFontsTexturev
_Z35ImFontAtlasUpdateConfigDataPointersP11ImFontAtlas
_Z35ImFontAtlasGetBuilderForStbTruetypev
_Z34ImGui_ImplWin32_GetDpiScaleForHwndPv
_Z34ImGui_ImplWin32_EnableDpiAwarenessv
_Z34ImGui_ImplGlfw_WindowFocusCallbackP10GLFWwindowi
_Z34ImGui_ImplGlfw_MouseButtonCallbackP10GLFWwindowiii
_Z34ImGui_ImplGlfw_CursorEnterCallbackP10GLFWwindowi
_Z34ImGui_ImplDX11_CreateDeviceObjectsv
_Z34ImGui_ImplDX10_CreateDeviceObjectsv
_Z34ImFontAtlasBuildMultiplyRectAlpha8PKhPhiiiii
_Z34ImBezierCubicClosestPointCasteljauRK6ImVec2S1_S1_S1_S1_f
_Z33ImGui_ImplDX9_CreateDeviceObjectsv
_Z32ImParseFormatSanitizeForScanningPKcPcy
_Z32ImParseFormatSanitizeForPrintingPKcPcy
_Z32ImGui_ImplWin32_WndProcHandlerExP6HWND__jyxR7ImGuiIO
_Z32ImGui_ImplOpenGL3_RenderDrawDataP10ImDrawData
_Z32ImGui_ImplGlfw_CursorPosCallbackP10GLFWwindowdd
_Z31ImTextFindPreviousUtf8CodepointPKcS0_
_Z31ImGui_ImplGlfw_RestoreCallbacksP10GLFWwindow
_Z31ImGui_ImplGlfw_InstallCallbacksP10GLFWwindow
_Z31ImFontAtlasBuildPackCustomRectsP11ImFontAtlasPv
_Z30ImGui_ImplWin32_WndProcHandlerP6HWND__jyx
_Z30ImGui_ImplGlfw_MonitorCallbackP11GLFWmonitori
_Z29ImGui_ImplWin32_InitForOpenGLPv
_Z29ImGui_ImplGlfw_ScrollCallbackP10GLFWwindowdd
_Z29ImGui_ImplDX11_RenderDrawDataP10ImDrawData
_Z29ImGui_ImplDX10_RenderDrawDataP10ImDrawData
_Z28ImTextCountUtf8BytesFromCharPKcS0_
_Z28ImParseFormatTrimDecorationsPKcPcy
_Z28ImGui_ImplGlfw_InitForVulkanP10GLFWwindowb
_Z28ImGui_ImplGlfw_InitForOpenGLP10GLFWwindowb
_Z28ImGui_ImplDX9_RenderDrawDataP10ImDrawData
_Z27ImTriangleBarycentricCoordsRK6ImVec2S1_S1_S1_RfS2_S2_
_Z27ImTextCountUtf8BytesFromStrPKtS0_
_Z27ImGui_ImplGlfw_InitForOtherP10GLFWwindowb
_Z27ImGui_ImplGlfw_CharCallbackP10GLFWwindowj
_Z27ImFormatStringToTempBufferVPPKcS1_S0_Pc
_Z26ImGui_ImplOpenGL3_Shutdownv
_Z26ImGui_ImplOpenGL3_NewFramev
_Z26ImGui_ImplGlfw_KeyCallbackP10GLFWwindowiiii
_Z26ImFormatStringToTempBufferPPKcS1_S0_z
_Z25ImFontAtlasBuildSetupFontP11ImFontAtlasP6ImFontP12ImFontConfigff
_Z25ImBezierCubicClosestPointRK6ImVec2S1_S1_S1_S1_i
_Z24ImTextCountCharsFromUtf8PKcS0_
_Z24ImGui_ImplWin32_Shutdownv
_Z24ImGui_ImplWin32_NewFramev
_Z23ImTriangleContainsPointRK6ImVec2S1_S1_S1_
_Z23ImGui_ImplGlfw_Shutdownv
_Z23ImGui_ImplGlfw_NewFramev
_Z23ImGui_ImplDX11_Shutdownv
_Z23ImGui_ImplDX11_NewFramev
_Z23ImGui_ImplDX10_Shutdownv
_Z23ImGui_ImplDX10_NewFramev
_Z22ImTriangleClosestPointRK6ImVec2S1_S1_S1_
_Z22ImParseFormatPrecisionPKci
_Z22ImParseFormatFindStartPKc
_Z22ImGui_ImplOpenGL3_InitPKc
_Z22ImGui_ImplDX9_Shutdownv
_Z22ImGui_ImplDX9_NewFramev
_Z22ImFontAtlasBuildFinishP11ImFontAtlas
_Z21ImBezierQuadraticCalcRK6ImVec2S1_S1_f
_Z20ImParseFormatFindEndPKc
_Z20ImGui_ImplWin32_InitPv
_Z20ImGui_ImplGlfw_Sleepi
_Z20ImFontAtlasBuildInitP11ImFontAtlas
_Z19ImGui_ImplDX11_InitP12ID3D11DeviceP19ID3D11DeviceContext
_Z19ImGui_ImplDX10_InitP12ID3D10Device
_Z18ImTextCharFromUtf8PjPKcS1_
_Z18ImLineClosestPointRK6ImVec2S1_S1_
_Z18ImGui_ImplDX9_InitP16IDirect3DDevice9
_Z18ImFileLoadToMemoryPKcS0_Pyi
_Z18ImAlphaBlendColorsjj
_Z17ImTextStrFromUtf8PtiPKcS1_PS1_
_Z17ImBezierCubicCalcRK6ImVec2S1_S1_S1_f
_Z16ImTextCountLinesPKcS0_
_Z16ImTextCharToUtf8Pcj
_Z15ImTextStrToUtf8PciPKtS1_
_Z15ImStrTrimBlanksPc
_Z15ImFormatStringVPcyPKcS_
_Z14ImStrSkipBlankPKc
_Z14ImFormatStringPcyPKcz
_Z13ImStreolRangePKcS0_
_Z13ImStrchrRangePKcS0_c
_Z13ImFileGetSizeP6_iobuf
_Z12ImLowerBoundP16ImGuiStoragePairS0_j
_Z11ImStrdupcpyPcPyPKc
_Z11ImFileWritePKvyyP6_iobuf
_Z11ImFileCloseP6_iobuf
_Z10ImStrnicmpPKcS0_y
_Z10ImHashDataPKvyj
_Z10ImFileReadPvyyP6_iobuf
_Z10ImFileOpenPKcS0_
